target datalayout = "e-m:e-p270:32:32-p271:32:32-p272:64:64-i64:64-i128:128-f80:128-n8:16:32:64-S128"
target triple = "x86_64-pc-linux-gnu"

%struct.Vec_Wec_t_ = type { i32, i32, ptr }
%struct.Vec_Int_t_ = type { i32, i32, ptr }

; Function Attrs: nounwind uwtable
define internal i32 @Vec_IntEntry(ptr noundef %0, i32 noundef %1) #0 {
  %3 = alloca ptr, align 8
  %4 = alloca i32, align 4
  store ptr %0, ptr %3, align 8
  store i32 %1, ptr %4, align 4
  %5 = load ptr, ptr %3, align 8
  %6 = getelementptr inbounds %struct.Vec_Int_t_, ptr %5, i32 0, i32 2
  %7 = load ptr, ptr %6, align 8
  %8 = load i32, ptr %4, align 4
  %9 = sext i32 %8 to i64
  %10 = getelementptr inbounds i32, ptr %7, i64 %9
  %11 = load i32, ptr %10, align 4
  ret i32 %11
}

; Function Attrs: nounwind uwtable
define internal i32 @Vec_IntSize(ptr noundef %0) #0 {
  %2 = alloca ptr, align 8
  store ptr %0, ptr %2, align 8
  %3 = load ptr, ptr %2, align 8
  %4 = getelementptr inbounds %struct.Vec_Int_t_, ptr %3, i32 0, i32 1
  %5 = load i32, ptr %4, align 4
  ret i32 %5
}

; Function Attrs: nounwind uwtable
define internal ptr @Vec_WecEntry(ptr noundef %0, i32 noundef %1) #0 {
  %3 = alloca ptr, align 8
  %4 = alloca i32, align 4
  store ptr %0, ptr %3, align 8
  store i32 %1, ptr %4, align 4
  %5 = load ptr, ptr %3, align 8
  %6 = getelementptr inbounds %struct.Vec_Wec_t_, ptr %5, i32 0, i32 2
  %7 = load ptr, ptr %6, align 8
  %8 = load i32, ptr %4, align 4
  %9 = sext i32 %8 to i64
  %10 = getelementptr inbounds %struct.Vec_Int_t_, ptr %7, i64 %9
  ret ptr %10
}

; Function Attrs: nounwind uwtable
define internal i32 @Vec_WecSize(ptr noundef %0) #0 {
  %2 = alloca ptr, align 8
  store ptr %0, ptr %2, align 8
  %3 = load ptr, ptr %2, align 8
  %4 = getelementptr inbounds %struct.Vec_Wec_t_, ptr %3, i32 0, i32 1
  %5 = load i32, ptr %4, align 4
  ret i32 %5
}

; Function Attrs: nounwind uwtable
define void @Acec_TreeVerifyPhases(ptr noundef %0, ptr noundef %1, ptr noundef %2) #0 {
  %4 = alloca ptr, align 8
  %5 = alloca ptr, align 8
  %6 = alloca ptr, align 8
  %7 = alloca ptr, align 8
  %8 = alloca i32, align 4
  %9 = alloca i32, align 4
  %10 = alloca i32, align 4
  store ptr %0, ptr %4, align 8
  store ptr %1, ptr %5, align 8
  store ptr %2, ptr %6, align 8
  store i32 0, ptr %8, align 4
  br label %11

11:                                               ; preds = %42, %3
  %12 = load i32, ptr %8, align 4
  %13 = load ptr, ptr %6, align 8
  %14 = call i32 @Vec_WecSize(ptr noundef %13)
  %15 = icmp slt i32 %12, %14
  br i1 %15, label %16, label %20

16:                                               ; preds = %11
  %17 = load ptr, ptr %6, align 8
  %18 = load i32, ptr %8, align 4
  %19 = call ptr @Vec_WecEntry(ptr noundef %17, i32 noundef %18)
  store ptr %19, ptr %7, align 8
  br label %20

20:                                               ; preds = %16, %11
  %21 = phi i1 [ false, %11 ], [ true, %16 ]
  br i1 %21, label %22, label %45

22:                                               ; preds = %20
  store i32 0, ptr %9, align 4
  br label %23

23:                                               ; preds = %38, %22
  %24 = load i32, ptr %9, align 4
  %25 = load ptr, ptr %7, align 8
  %26 = call i32 @Vec_IntSize(ptr noundef %25)
  %27 = icmp slt i32 %24, %26
  br i1 %27, label %28, label %32

28:                                               ; preds = %23
  %29 = load ptr, ptr %7, align 8
  %30 = load i32, ptr %9, align 4
  %31 = call i32 @Vec_IntEntry(ptr noundef %29, i32 noundef %30)
  store i32 %31, ptr %10, align 4
  br label %32

32:                                               ; preds = %28, %23
  %33 = phi i1 [ false, %23 ], [ true, %28 ]
  br i1 %33, label %34, label %41

34:                                               ; preds = %32
  %35 = load ptr, ptr %4, align 8
  %36 = load ptr, ptr %5, align 8
  %37 = load i32, ptr %10, align 4
  call void @Acec_TreeVerifyPhaseOne(ptr noundef %35, ptr noundef %36, i32 noundef %37)
  br label %38

38:                                               ; preds = %34
  %39 = load i32, ptr %9, align 4
  %40 = add nsw i32 %39, 1
  store i32 %40, ptr %9, align 4
  br label %23, !llvm.loop !18

41:                                               ; preds = %32
  br label %42

42:                                               ; preds = %41
  %43 = load i32, ptr %8, align 4
  %44 = add nsw i32 %43, 1
  store i32 %44, ptr %8, align 4
  br label %11, !llvm.loop !19

45:                                               ; preds = %20
  ret void
}