; Function Attrs: nounwind uwtable
define void @Acec_TreeVerifyPhases(ptr noundef %0, ptr noundef readonly captures(none) %1, ptr noundef readonly captures(none) %2) local_unnamed_addr #0 {
  %4 = getelementptr i8, ptr %2, i64 4
  %.val20 = load i32, ptr %4, align 4
  %5 = icmp sgt i32 %.val20, 0
  br i1 %5, label %.lr.ph22, label %.critedge

.lr.ph22:                                         ; preds = %3
  %6 = getelementptr i8, ptr %2, i64 8
  br label %7

7:                                                ; preds = %.lr.ph22, %.critedge2
  %.val27 = phi i32 [ %.val20, %.lr.ph22 ], [ %.val, %.critedge2 ]
  %indvars.iv24 = phi i64 [ 0, %.lr.ph22 ], [ %indvars.iv.next25, %.critedge2 ]
  %.val15 = load ptr, ptr %6, align 8
  %8 = getelementptr inbounds nuw %struct.Vec_Int_t_, ptr %.val15, i64 %indvars.iv24
  %9 = getelementptr i8, ptr %8, i64 4
  %.val1618 = load i32, ptr %9, align 4
  %10 = icmp sgt i32 %.val1618, 0
  br i1 %10, label %.lr.ph, label %.critedge2

.lr.ph:                                           ; preds = %7
  %11 = getelementptr i8, ptr %8, i64 8
  br label %12

12:                                               ; preds = %.lr.ph, %12
  %indvars.iv = phi i64 [ 0, %.lr.ph ], [ %indvars.iv.next, %12 ]
  %.val17 = load ptr, ptr %11, align 8
  %13 = getelementptr inbounds nuw i32, ptr %.val17, i64 %indvars.iv
  %14 = load i32, ptr %13, align 4
  tail call void @Acec_TreeVerifyPhaseOne(ptr noundef %0, ptr noundef %1, i32 noundef %14)
  %indvars.iv.next = add nuw nsw i64 %indvars.iv, 1
  %.val16 = load i32, ptr %9, align 4
  %15 = sext i32 %.val16 to i64
  %16 = icmp slt i64 %indvars.iv.next, %15
  br i1 %16, label %12, label %.critedge2.loopexit, !llvm.loop !19

.critedge2.loopexit:                              ; preds = %12
  %.val.pre = load i32, ptr %4, align 4
  br label %.critedge2

.critedge2:                                       ; preds = %.critedge2.loopexit, %7
  %.val = phi i32 [ %.val.pre, %.critedge2.loopexit ], [ %.val27, %7 ]
  %indvars.iv.next25 = add nuw nsw i64 %indvars.iv24, 1
  %17 = sext i32 %.val to i64
  %18 = icmp slt i64 %indvars.iv.next25, %17
  br i1 %18, label %7, label %.critedge, !llvm.loop !20

.critedge:                                        ; preds = %.critedge2, %3
  ret void
}